; Function Attrs: mustprogress nounwind uwtable
define hidden noundef zeroext i1 @_ZN16G1ConcurrentMark36wait_until_root_region_scan_finishedEv(ptr noundef nonnull align 8 dereferenceable(1849) %0) local_unnamed_addr #0 align 2 {
  %2 = getelementptr inbounds i8, ptr %0, i64 128
  %3 = load volatile i8, ptr %2, align 8
  %4 = trunc i8 %3 to i1
  br i1 %4, label %5, label %_ZN18G1CMRootMemRegions24wait_until_scan_finishedEv.exit

5:                                                ; preds = %1
  %6 = load ptr, ptr @RootRegionScan_lock, align 8
  %.not.i.i.i = icmp eq ptr %6, null
  br i1 %.not.i.i.i, label %_ZN13MonitorLockerC2EP7MonitorN5Mutex18SafepointCheckFlagE.exit.i, label %7

7:                                                ; preds = %5
  tail call void @_ZN5Mutex28lock_without_safepoint_checkEv(ptr noundef nonnull align 8 dereferenceable(104) %6) #22
  br label %_ZN13MonitorLockerC2EP7MonitorN5Mutex18SafepointCheckFlagE.exit.i

_ZN13MonitorLockerC2EP7MonitorN5Mutex18SafepointCheckFlagE.exit.i: ; preds = %7, %5
  %8 = load volatile i8, ptr %2, align 8
  %9 = trunc i8 %8 to i1
  br i1 %9, label %_ZN13MonitorLocker4waitEl.exit.i, label %._crit_edge.i

_ZN13MonitorLocker4waitEl.exit.i:                 ; preds = %_ZN13MonitorLockerC2EP7MonitorN5Mutex18SafepointCheckFlagE.exit.i, %_ZN13MonitorLocker4waitEl.exit.i
  %10 = tail call noundef zeroext i1 @_ZN7Monitor28wait_without_safepoint_checkEm(ptr noundef nonnull align 8 dereferenceable(104) %6, i64 noundef 0) #22
  %11 = load volatile i8, ptr %2, align 8
  %12 = trunc i8 %11 to i1
  br i1 %12, label %_ZN13MonitorLocker4waitEl.exit.i, label %._crit_edge.i, !llvm.loop !19

._crit_edge.i:                                    ; preds = %_ZN13MonitorLocker4waitEl.exit.i, %_ZN13MonitorLockerC2EP7MonitorN5Mutex18SafepointCheckFlagE.exit.i
  br i1 %.not.i.i.i, label %_ZN18G1CMRootMemRegions24wait_until_scan_finishedEv.exit, label %13

13:                                               ; preds = %._crit_edge.i
  tail call void @_ZN5Mutex6unlockEv(ptr noundef nonnull align 8 dereferenceable(104) %6) #22
  br label %_ZN18G1CMRootMemRegions24wait_until_scan_finishedEv.exit

_ZN18G1CMRootMemRegions24wait_until_scan_finishedEv.exit: ; preds = %1, %._crit_edge.i, %13
  ret i1 %4
}